; Function Attrs: mustprogress nounwind uwtable
define hidden void @_ZN10DivModNodeC2EP4NodeS1_S1_(ptr noundef nonnull align 8 dereferenceable(52) %0, ptr noundef %1, ptr noundef %2, ptr noundef %3) unnamed_addr #0 align 2 {
  tail call void @_ZN4NodeC2Ej(ptr noundef nonnull align 8 dereferenceable(52) %0, i32 noundef 3) #8
  %5 = getelementptr inbounds i8, ptr %0, i64 44
  store i32 1, ptr %5, align 4
  store ptr getelementptr inbounds inrange(-16, 200) (i8, ptr @_ZTV10DivModNode, i64 16), ptr %0, align 8
  %6 = getelementptr inbounds i8, ptr %0, i64 8
  %7 = load ptr, ptr %6, align 8
  store ptr %1, ptr %7, align 8
  %.not.i = icmp eq ptr %1, null
  br i1 %.not.i, label %_ZN4Node8init_reqEjPS_.exit, label %8

8:                                                ; preds = %4
  %9 = getelementptr inbounds i8, ptr %1, i64 16
  %10 = load ptr, ptr %9, align 8
  %11 = icmp eq ptr %10, null
  br i1 %11, label %_ZN4Node8init_reqEjPS_.exit, label %12

12:                                               ; preds = %8
  %13 = getelementptr inbounds i8, ptr %1, i64 32
  %14 = load i32, ptr %13, align 8
  %15 = getelementptr inbounds i8, ptr %1, i64 36
  %16 = load i32, ptr %15, align 4
  %17 = icmp eq i32 %14, %16
  br i1 %17, label %18, label %19

18:                                               ; preds = %12
  tail call void @_ZN4Node8out_growEj(ptr noundef nonnull align 8 dereferenceable(52) %1, i32 noundef %14) #8
  %.pre.i.i = load ptr, ptr %9, align 8
  %.pre2.i.i = load i32, ptr %13, align 8
  br label %19

19:                                               ; preds = %18, %12
  %20 = phi i32 [ %.pre2.i.i, %18 ], [ %14, %12 ]
  %21 = phi ptr [ %.pre.i.i, %18 ], [ %10, %12 ]
  %22 = add i32 %20, 1
  store i32 %22, ptr %13, align 8
  %23 = zext i32 %20 to i64
  %24 = getelementptr inbounds ptr, ptr %21, i64 %23
  store ptr %0, ptr %24, align 8
  br label %_ZN4Node8init_reqEjPS_.exit

_ZN4Node8init_reqEjPS_.exit:                      ; preds = %4, %8, %19
  %25 = load ptr, ptr %6, align 8
  %26 = getelementptr inbounds i8, ptr %25, i64 8
  store ptr %2, ptr %26, align 8
  %.not.i4 = icmp eq ptr %2, null
  br i1 %.not.i4, label %_ZN4Node8init_reqEjPS_.exit7, label %27

27:                                               ; preds = %_ZN4Node8init_reqEjPS_.exit
  %28 = getelementptr inbounds i8, ptr %2, i64 16
  %29 = load ptr, ptr %28, align 8
  %30 = icmp eq ptr %29, null
  br i1 %30, label %_ZN4Node8init_reqEjPS_.exit7, label %31

31:                                               ; preds = %27
  %32 = getelementptr inbounds i8, ptr %2, i64 32
  %33 = load i32, ptr %32, align 8
  %34 = getelementptr inbounds i8, ptr %2, i64 36
  %35 = load i32, ptr %34, align 4
  %36 = icmp eq i32 %33, %35
  br i1 %36, label %37, label %38

37:                                               ; preds = %31
  tail call void @_ZN4Node8out_growEj(ptr noundef nonnull align 8 dereferenceable(52) %2, i32 noundef %33) #8
  %.pre.i.i5 = load ptr, ptr %28, align 8
  %.pre2.i.i6 = load i32, ptr %32, align 8
  br label %38

38:                                               ; preds = %37, %31
  %39 = phi i32 [ %.pre2.i.i6, %37 ], [ %33, %31 ]
  %40 = phi ptr [ %.pre.i.i5, %37 ], [ %29, %31 ]
  %41 = add i32 %39, 1
  store i32 %41, ptr %32, align 8
  %42 = zext i32 %39 to i64
  %43 = getelementptr inbounds ptr, ptr %40, i64 %42
  store ptr %0, ptr %43, align 8
  br label %_ZN4Node8init_reqEjPS_.exit7

_ZN4Node8init_reqEjPS_.exit7:                     ; preds = %_ZN4Node8init_reqEjPS_.exit, %27, %38
  %44 = load ptr, ptr %6, align 8
  %45 = getelementptr inbounds i8, ptr %44, i64 16
  store ptr %3, ptr %45, align 8
  %.not.i8 = icmp eq ptr %3, null
  br i1 %.not.i8, label %_ZN4Node8init_reqEjPS_.exit11, label %46

46:                                               ; preds = %_ZN4Node8init_reqEjPS_.exit7
  %47 = getelementptr inbounds i8, ptr %3, i64 16
  %48 = load ptr, ptr %47, align 8
  %49 = icmp eq ptr %48, null
  br i1 %49, label %_ZN4Node8init_reqEjPS_.exit11, label %50

50:                                               ; preds = %46
  %51 = getelementptr inbounds i8, ptr %3, i64 32
  %52 = load i32, ptr %51, align 8
  %53 = getelementptr inbounds i8, ptr %3, i64 36
  %54 = load i32, ptr %53, align 4
  %55 = icmp eq i32 %52, %54
  br i1 %55, label %56, label %57

56:                                               ; preds = %50
  tail call void @_ZN4Node8out_growEj(ptr noundef nonnull align 8 dereferenceable(52) %3, i32 noundef %52) #8
  %.pre.i.i9 = load ptr, ptr %47, align 8
  %.pre2.i.i10 = load i32, ptr %51, align 8
  br label %57

57:                                               ; preds = %56, %50
  %58 = phi i32 [ %.pre2.i.i10, %56 ], [ %52, %50 ]
  %59 = phi ptr [ %.pre.i.i9, %56 ], [ %48, %50 ]
  %60 = add i32 %58, 1
  store i32 %60, ptr %51, align 8
  %61 = zext i32 %58 to i64
  %62 = getelementptr inbounds ptr, ptr %59, i64 %61
  store ptr %0, ptr %62, align 8
  br label %_ZN4Node8init_reqEjPS_.exit11

_ZN4Node8init_reqEjPS_.exit11:                    ; preds = %_ZN4Node8init_reqEjPS_.exit7, %46, %57
  ret void
}